; Function Attrs: mustprogress uwtable
define internal fastcc void @_ZN7Imf_3_212_GLOBAL__N_114LineBufferTaskC2EPN13IlmThread_3_29TaskGroupEPNS_22DeepScanLineOutputFile4DataEiii(ptr noundef nonnull align 8 dereferenceable(32) %this, ptr noundef %group, ptr noundef %ofd, i32 noundef %number, i32 noundef %scanLineMin, i32 noundef %scanLineMax) unnamed_addr #3 align 2 personality ptr @__gxx_personality_v0 {
entry:
  tail call void @_ZN13IlmThread_3_24TaskC2EPNS_9TaskGroupE(ptr noundef nonnull align 8 dereferenceable(16) %this, ptr noundef %group)
  store ptr getelementptr inbounds ({ [5 x ptr] }, ptr @_ZTVN7Imf_3_212_GLOBAL__N_114LineBufferTaskE, i64 0, i32 0, i64 2), ptr %this, align 8
  %_ofd = getelementptr inbounds i8, ptr %this, i64 16
  store ptr %ofd, ptr %_ofd, align 8
  %_lineBuffer = getelementptr inbounds i8, ptr %this, i64 24
  %0 = getelementptr i8, ptr %ofd, i64 296
  %ofd.val = load ptr, ptr %0, align 8
  %1 = getelementptr i8, ptr %ofd, i64 304
  %ofd.val2 = load ptr, ptr %1, align 8
  %conv.i = sext i32 %number to i64
  %sub.ptr.lhs.cast.i.i = ptrtoint ptr %ofd.val2 to i64
  %sub.ptr.rhs.cast.i.i = ptrtoint ptr %ofd.val to i64
  %sub.ptr.sub.i.i = sub i64 %sub.ptr.lhs.cast.i.i, %sub.ptr.rhs.cast.i.i
  %sub.ptr.div.i.i = ashr exact i64 %sub.ptr.sub.i.i, 3
  %rem.i = urem i64 %conv.i, %sub.ptr.div.i.i
  %add.ptr.i.i = getelementptr inbounds ptr, ptr %ofd.val, i64 %rem.i
  %2 = load ptr, ptr %add.ptr.i.i, align 8
  store ptr %2, ptr %_lineBuffer, align 8
  %_sem.i = getelementptr inbounds i8, ptr %2, i64 160
  invoke void @_ZN13IlmThread_3_29Semaphore4waitEv(ptr noundef nonnull align 8 dereferenceable(40) %_sem.i)
          to label %invoke.cont4 unwind label %lpad

invoke.cont4:                                     ; preds = %entry
  %3 = load ptr, ptr %_lineBuffer, align 8
  %partiallyFull = getelementptr inbounds i8, ptr %3, i64 120
  %4 = load i8, ptr %partiallyFull, align 8
  %5 = and i8 %4, 1
  %tobool.not = icmp eq i8 %5, 0
  br i1 %tobool.not, label %if.then, label %if.end

if.then:                                          ; preds = %invoke.cont4
  %6 = load ptr, ptr %_ofd, align 8
  %minY = getelementptr inbounds i8, ptr %6, i64 196
  %7 = load i32, ptr %minY, align 4
  %linesInBuffer = getelementptr inbounds i8, ptr %6, i64 320
  %8 = load i32, ptr %linesInBuffer, align 8
  %mul = mul nsw i32 %8, %number
  %add = add nsw i32 %mul, %7
  %minY9 = getelementptr inbounds i8, ptr %3, i64 96
  store i32 %add, ptr %minY9, align 8
  %9 = load ptr, ptr %_lineBuffer, align 8
  %minY11 = getelementptr inbounds i8, ptr %9, i64 96
  %10 = load i32, ptr %minY11, align 8
  %11 = load ptr, ptr %_ofd, align 8
  %linesInBuffer13 = getelementptr inbounds i8, ptr %11, i64 320
  %12 = load i32, ptr %linesInBuffer13, align 8
  %add14 = add i32 %10, -1
  %sub = add i32 %add14, %12
  %maxY = getelementptr inbounds i8, ptr %11, i64 200
  %13 = load i32, ptr %maxY, align 4
  %.sroa.speculated = tail call i32 @llvm.smin.i32(i32 %13, i32 %sub)
  %maxY18 = getelementptr inbounds i8, ptr %9, i64 100
  store i32 %.sroa.speculated, ptr %maxY18, align 4
  %14 = load ptr, ptr %_lineBuffer, align 8
  %partiallyFull20 = getelementptr inbounds i8, ptr %14, i64 120
  store i8 1, ptr %partiallyFull20, align 8
  %.pre = load ptr, ptr %_lineBuffer, align 8
  br label %if.end

lpad:                                             ; preds = %entry
  %15 = landingpad { ptr, i32 }
          cleanup
  tail call void @_ZN13IlmThread_3_24TaskD2Ev(ptr noundef nonnull align 8 dereferenceable(16) %this) #20
  resume { ptr, i32 } %15

if.end:                                           ; preds = %if.then, %invoke.cont4
  %16 = phi ptr [ %.pre, %if.then ], [ %3, %invoke.cont4 ]
  %minY22 = getelementptr inbounds i8, ptr %16, i64 96
  %17 = load i32, ptr %minY22, align 4
  %.sroa.speculated13 = tail call i32 @llvm.smax.i32(i32 %17, i32 %scanLineMin)
  %scanLineMin25 = getelementptr inbounds i8, ptr %16, i64 104
  store i32 %.sroa.speculated13, ptr %scanLineMin25, align 8
  %18 = load ptr, ptr %_lineBuffer, align 8
  %maxY27 = getelementptr inbounds i8, ptr %18, i64 100
  %19 = load i32, ptr %maxY27, align 4
  %.sroa.speculated9 = tail call i32 @llvm.smin.i32(i32 %19, i32 %scanLineMax)
  %scanLineMax30 = getelementptr inbounds i8, ptr %18, i64 108
  store i32 %.sroa.speculated9, ptr %scanLineMax30, align 4
  ret void
}